target datalayout = "e-m:e-p270:32:32-p271:32:32-p272:64:64-i64:64-i128:128-f80:128-n8:16:32:64-S128"
target triple = "x86_64-pc-linux-gnu"

%struct.job_record = type { i32, ptr, ptr, ptr, ptr, i16, i32, i32, i32, ptr, i32, ptr, ptr, i16, ptr, double, i64, ptr, ptr, ptr, ptr, ptr, ptr, i32, ptr, i32, i64, i64, i32, i32, ptr, i16, i64, i64, i8, i32, ptr, ptr, ptr, ptr, ptr, ptr, ptr, ptr, i32, ptr, ptr, i32, ptr, i32, ptr, i32, ptr, i32, ptr, ptr, ptr, ptr, ptr, ptr, i32, i16, i64, ptr, ptr, ptr, ptr, %struct.acct_policy_limit_set_t, i16, ptr, ptr, ptr, ptr, ptr, i32, ptr, ptr, ptr, ptr, ptr, i32, i32, ptr, ptr, ptr, i16, ptr, ptr, i8, ptr, ptr, i64, i64, i8, i32, i32, i8, i32, ptr, i32, i64, i32, ptr, ptr, ptr, i8, i16, i64, i32, ptr, ptr, ptr, ptr, ptr, i16, i32, ptr, ptr, ptr, ptr, i32, ptr, i32, i16, i64, ptr, i32, i32, ptr, i64, ptr, ptr, i64, i32, i32, i64, i32, i32, ptr, ptr, ptr, ptr, ptr, ptr, ptr, ptr, ptr, ptr, ptr, ptr, i32, ptr, i16, i16, i16, i16, ptr, i32, i32, i8, i64 }
%struct.acct_policy_limit_set_t = type { i16, i16, ptr }
%struct.job_details_t = type { i32, ptr, i64, ptr, i32, ptr, i64, ptr, i16, i16, ptr, i16, i32, i32, i32, i16, ptr, i16, ptr, ptr, ptr, i16, ptr, ptr, ptr, ptr, i32, ptr, ptr, ptr, ptr, ptr, i32, i32, i32, ptr, ptr, i16, i32, i32, i32, i32, i32, i32, i16, i16, i32, i8, i8, i32, i32, i64, i64, i16, i32, ptr, ptr, i8, ptr, i32, ptr, i64, ptr, ptr, i16, i16, i16, i8, ptr, ptr, ptr, ptr, ptr, ptr, i64, i32, i32, i8, ptr, i16, ptr, ptr, i16 }

@preempt_job_list = internal global ptr null, align 8
@.str.60 = private unnamed_addr constant [27 x i8] c"%s could not find JobId=%u\00", align 1
@__func__._preempt_job_dequeue = private unnamed_addr constant [21 x i8] c"_preempt_job_dequeue\00", align 1
@.str.61 = private unnamed_addr constant [30 x i8] c"preempted %pJ has been killed\00", align 1
@.str.62 = private unnamed_addr constant [32 x i8] c"preempted %pJ has been requeued\00", align 1
@.str.63 = private unnamed_addr constant [40 x i8] c"preempted %pJ could not be requeued: %s\00", align 1
@.str.64 = private unnamed_addr constant [32 x i8] c"Invalid preempt_mode %u for %pJ\00", align 1
@.str.65 = private unnamed_addr constant [35 x i8] c"%s: preempted %pJ had to be killed\00", align 1
@.str.66 = private unnamed_addr constant [34 x i8] c"%s: preempted %pJ kill failure %s\00", align 1

; Function Attrs: nounwind uwtable
define internal void @_preempt_job_dequeue() #0 {
  %1 = alloca ptr, align 8
  %2 = alloca i32, align 4
  %3 = alloca ptr, align 8
  %4 = alloca i16, align 2
  %5 = alloca i32, align 4
  %6 = alloca i32, align 4
  call void @llvm.lifetime.start.p0(i64 8, ptr %1) #8
  call void @llvm.lifetime.start.p0(i64 4, ptr %2) #8
  call void @llvm.lifetime.start.p0(i64 8, ptr %3) #8
  call void @llvm.lifetime.start.p0(i64 2, ptr %4) #8
  br label %7

7:                                                ; preds = %152, %150, %0
  %8 = load ptr, ptr @preempt_job_list, align 8
  %9 = call ptr @list_pop(ptr noundef %8)
  store ptr %9, ptr %3, align 8
  %10 = icmp ne ptr %9, null
  br i1 %10, label %11, label %153

11:                                               ; preds = %7
  call void @llvm.lifetime.start.p0(i64 4, ptr %5) #8
  store i32 -1, ptr %5, align 4
  %12 = load ptr, ptr %3, align 8
  %13 = load i32, ptr %12, align 4
  store i32 %13, ptr %2, align 4
  call void @slurm_xfree(ptr noundef %3)
  %14 = load i32, ptr %2, align 4
  %15 = call ptr @find_job_record(i32 noundef %14)
  store ptr %15, ptr %1, align 8
  %16 = icmp eq ptr %15, null
  br i1 %16, label %17, label %20

17:                                               ; preds = %11
  %18 = load i32, ptr %2, align 4
  %19 = call i32 (ptr, ...) @error(ptr noundef @.str.60, ptr noundef @__func__._preempt_job_dequeue, i32 noundef %18)
  store i32 2, ptr %6, align 4
  br label %150, !llvm.loop !15

20:                                               ; preds = %11
  %21 = load ptr, ptr %1, align 8
  %22 = call zeroext i16 @slurm_job_preempt_mode(ptr noundef %21)
  store i16 %22, ptr %4, align 2
  %23 = load i16, ptr %4, align 2
  %24 = zext i16 %23 to i32
  %25 = icmp eq i32 %24, 1
  br i1 %25, label %26, label %32

26:                                               ; preds = %20
  %27 = load ptr, ptr %1, align 8
  %28 = call i32 @_suspend_job(ptr noundef %27)
  store i32 %28, ptr %5, align 4
  %29 = icmp eq i32 %28, 2037
  br i1 %29, label %30, label %31

30:                                               ; preds = %26
  store i32 0, ptr %5, align 4
  br label %31

31:                                               ; preds = %30, %26
  br label %114

32:                                               ; preds = %20
  %33 = load i16, ptr %4, align 2
  %34 = zext i16 %33 to i32
  %35 = icmp eq i32 %34, 8
  br i1 %35, label %36, label %54

36:                                               ; preds = %32
  %37 = load ptr, ptr %1, align 8
  %38 = call i32 @job_signal(ptr noundef %37, i16 noundef zeroext 9, i16 noundef zeroext 0, i32 noundef 0, i1 noundef zeroext true)
  store i32 %38, ptr %5, align 4
  %39 = load i32, ptr %5, align 4
  %40 = icmp eq i32 %39, 0
  br i1 %40, label %41, label %53

41:                                               ; preds = %36
  br label %42

42:                                               ; preds = %41
  br label %43

43:                                               ; preds = %42
  %44 = call i32 @get_log_level()
  %45 = icmp sge i32 %44, 3
  br i1 %45, label %46, label %48

46:                                               ; preds = %43
  %47 = load ptr, ptr %1, align 8
  call void (i32, ptr, ...) @log_var(i32 noundef 3, ptr noundef @.str.61, ptr noundef %47)
  br label %48

48:                                               ; preds = %46, %43
  br label %49

49:                                               ; preds = %48
  br label %50

50:                                               ; preds = %49
  br label %51

51:                                               ; preds = %50
  br label %52

52:                                               ; preds = %51
  br label %53

53:                                               ; preds = %52, %36
  br label %113

54:                                               ; preds = %32
  %55 = load i16, ptr %4, align 2
  %56 = zext i16 %55 to i32
  %57 = icmp eq i32 %56, 2
  br i1 %57, label %58, label %102

58:                                               ; preds = %54
  %59 = load ptr, ptr %1, align 8
  %60 = getelementptr inbounds nuw %struct.job_record, ptr %59, i32 0, i32 13
  %61 = load i16, ptr %60, align 8
  %62 = zext i16 %61 to i32
  %63 = icmp ne i32 %62, 0
  br i1 %63, label %64, label %102

64:                                               ; preds = %58
  %65 = load ptr, ptr %1, align 8
  %66 = getelementptr inbounds nuw %struct.job_record, ptr %65, i32 0, i32 30
  %67 = load ptr, ptr %66, align 8
  %68 = icmp ne ptr %67, null
  br i1 %68, label %69, label %102

69:                                               ; preds = %64
  %70 = load ptr, ptr %1, align 8
  %71 = getelementptr inbounds nuw %struct.job_record, ptr %70, i32 0, i32 30
  %72 = load ptr, ptr %71, align 8
  %73 = getelementptr inbounds nuw %struct.job_details_t, ptr %72, i32 0, i32 64
  %74 = load i16, ptr %73, align 8
  %75 = zext i16 %74 to i32
  %76 = icmp sgt i32 %75, 0
  br i1 %76, label %77, label %102

77:                                               ; preds = %69
  %78 = load ptr, ptr %1, align 8
  %79 = getelementptr inbounds nuw %struct.job_record, ptr %78, i32 0, i32 53
  %80 = load i32, ptr %79, align 8
  %81 = call i32 @job_requeue(i32 noundef 0, i32 noundef %80, ptr noundef null, i1 noundef zeroext true, i32 noundef 0)
  store i32 %81, ptr %5, align 4
  %82 = load i32, ptr %5, align 4
  %83 = icmp eq i32 %82, 0
  br i1 %83, label %84, label %96

84:                                               ; preds = %77
  br label %85

85:                                               ; preds = %84
  br label %86

86:                                               ; preds = %85
  %87 = call i32 @get_log_level()
  %88 = icmp sge i32 %87, 3
  br i1 %88, label %89, label %91

89:                                               ; preds = %86
  %90 = load ptr, ptr %1, align 8
  call void (i32, ptr, ...) @log_var(i32 noundef 3, ptr noundef @.str.62, ptr noundef %90)
  br label %91

91:                                               ; preds = %89, %86
  br label %92

92:                                               ; preds = %91
  br label %93

93:                                               ; preds = %92
  br label %94

94:                                               ; preds = %93
  br label %95

95:                                               ; preds = %94
  br label %101

96:                                               ; preds = %77
  %97 = load ptr, ptr %1, align 8
  %98 = load i32, ptr %5, align 4
  %99 = call ptr @slurm_strerror(i32 noundef %98)
  %100 = call i32 (ptr, ...) @error(ptr noundef @.str.63, ptr noundef %97, ptr noundef %99)
  br label %101

101:                                              ; preds = %96, %95
  br label %112

102:                                              ; preds = %69, %64, %58, %54
  %103 = load i16, ptr %4, align 2
  %104 = zext i16 %103 to i32
  %105 = icmp eq i32 %104, 0
  br i1 %105, label %106, label %111

106:                                              ; preds = %102
  %107 = load i16, ptr %4, align 2
  %108 = zext i16 %107 to i32
  %109 = load ptr, ptr %1, align 8
  %110 = call i32 (ptr, ...) @error(ptr noundef @.str.64, i32 noundef %108, ptr noundef %109)
  store i32 2, ptr %6, align 4
  br label %150, !llvm.loop !15

111:                                              ; preds = %102
  br label %112

112:                                              ; preds = %111, %101
  br label %113

113:                                              ; preds = %112, %53
  br label %114

114:                                              ; preds = %113, %31
  %115 = load i32, ptr %5, align 4
  %116 = icmp ne i32 %115, 0
  br i1 %116, label %117, label %149

117:                                              ; preds = %114
  %118 = load ptr, ptr %1, align 8
  %119 = call i32 @job_signal(ptr noundef %118, i16 noundef zeroext 9, i16 noundef zeroext 0, i32 noundef 0, i1 noundef zeroext true)
  store i32 %119, ptr %5, align 4
  %120 = load i32, ptr %5, align 4
  %121 = icmp eq i32 %120, 0
  br i1 %121, label %122, label %134

122:                                              ; preds = %117
  br label %123

123:                                              ; preds = %122
  br label %124

124:                                              ; preds = %123
  %125 = call i32 @get_log_level()
  %126 = icmp sge i32 %125, 3
  br i1 %126, label %127, label %129

127:                                              ; preds = %124
  %128 = load ptr, ptr %1, align 8
  call void (i32, ptr, ...) @log_var(i32 noundef 3, ptr noundef @.str.65, ptr noundef @__func__._preempt_job_dequeue, ptr noundef %128)
  br label %129

129:                                              ; preds = %127, %124
  br label %130

130:                                              ; preds = %129
  br label %131

131:                                              ; preds = %130
  br label %132

132:                                              ; preds = %131
  br label %133

133:                                              ; preds = %132
  br label %148

134:                                              ; preds = %117
  br label %135

135:                                              ; preds = %134
  br label %136

136:                                              ; preds = %135
  %137 = call i32 @get_log_level()
  %138 = icmp sge i32 %137, 3
  br i1 %138, label %139, label %143

139:                                              ; preds = %136
  %140 = load ptr, ptr %1, align 8
  %141 = load i32, ptr %5, align 4
  %142 = call ptr @slurm_strerror(i32 noundef %141)
  call void (i32, ptr, ...) @log_var(i32 noundef 3, ptr noundef @.str.66, ptr noundef @__func__._preempt_job_dequeue, ptr noundef %140, ptr noundef %142)
  br label %143

143:                                              ; preds = %139, %136
  br label %144

144:                                              ; preds = %143
  br label %145

145:                                              ; preds = %144
  br label %146

146:                                              ; preds = %145
  br label %147

147:                                              ; preds = %146
  br label %148

148:                                              ; preds = %147, %133
  br label %149

149:                                              ; preds = %148, %114
  store i32 0, ptr %6, align 4
  br label %150

150:                                              ; preds = %149, %106, %17
  call void @llvm.lifetime.end.p0(i64 4, ptr %5) #8
  %151 = load i32, ptr %6, align 4
  switch i32 %151, label %154 [
    i32 0, label %152
    i32 2, label %7
  ]

152:                                              ; preds = %150
  br label %7, !llvm.loop !15

153:                                              ; preds = %7
  call void @llvm.lifetime.end.p0(i64 2, ptr %4) #8
  call void @llvm.lifetime.end.p0(i64 8, ptr %3) #8
  call void @llvm.lifetime.end.p0(i64 4, ptr %2) #8
  call void @llvm.lifetime.end.p0(i64 8, ptr %1) #8
  ret void

154:                                              ; preds = %150
  unreachable
}