; Function Attrs: nounwind uwtable
define internal fastcc void @_preempt_job_dequeue() unnamed_addr #0 {
  %1 = alloca ptr, align 8
  call void @llvm.lifetime.start.p0(i64 8, ptr nonnull %1) #8
  %2 = load ptr, ptr @preempt_job_list, align 8
  %3 = tail call ptr @list_pop(ptr noundef %2) #8
  store ptr %3, ptr %1, align 8
  %.not40 = icmp eq ptr %3, null
  br i1 %.not40, label %._crit_edge, label %.lr.ph

.lr.ph:                                           ; preds = %0, %.critedge
  %4 = phi ptr [ %54, %.critedge ], [ %3, %0 ]
  %5 = load i32, ptr %4, align 4
  call void @slurm_xfree(ptr noundef nonnull %1) #8
  %6 = call ptr @find_job_record(i32 noundef %5) #8
  %7 = icmp eq ptr %6, null
  br i1 %7, label %8, label %10

8:                                                ; preds = %.lr.ph
  %9 = call i32 (ptr, ...) @error(ptr noundef nonnull @.str.60, ptr noundef nonnull @__func__._preempt_job_dequeue, i32 noundef %5) #8
  br label %.critedge, !llvm.loop !14

10:                                               ; preds = %.lr.ph
  %11 = call zeroext i16 @slurm_job_preempt_mode(ptr noundef nonnull %6) #8
  switch i16 %11, label %.critedge39 [
    i16 1, label %12
    i16 8, label %14
    i16 2, label %21
    i16 0, label %42
  ]

12:                                               ; preds = %10
  %13 = call fastcc i32 @_suspend_job(ptr noundef nonnull %6)
  switch i32 %13, label %.critedge39 [
    i32 2037, label %.critedge
    i32 0, label %.critedge
  ]

14:                                               ; preds = %10
  %15 = call i32 @job_signal(ptr noundef nonnull %6, i16 noundef zeroext 9, i16 noundef zeroext 0, i32 noundef 0, i1 noundef zeroext true) #8
  %16 = icmp eq i32 %15, 0
  br i1 %16, label %17, label %.critedge39

17:                                               ; preds = %14
  %18 = call i32 @get_log_level() #8
  %19 = icmp sgt i32 %18, 2
  br i1 %19, label %20, label %.critedge

20:                                               ; preds = %17
  call void (i32, ptr, ...) @log_var(i32 noundef 3, ptr noundef nonnull @.str.61, ptr noundef nonnull %6) #8
  br label %.critedge

21:                                               ; preds = %10
  %22 = getelementptr inbounds nuw i8, ptr %6, i64 88
  %23 = load i16, ptr %22, align 8
  %.not34 = icmp eq i16 %23, 0
  br i1 %.not34, label %.critedge39, label %24

24:                                               ; preds = %21
  %25 = getelementptr inbounds nuw i8, ptr %6, i64 216
  %26 = load ptr, ptr %25, align 8
  %.not35 = icmp eq ptr %26, null
  br i1 %.not35, label %.critedge39, label %27

27:                                               ; preds = %24
  %28 = getelementptr inbounds nuw i8, ptr %26, i64 408
  %29 = load i16, ptr %28, align 8
  %.not36 = icmp eq i16 %29, 0
  br i1 %.not36, label %.critedge39, label %30

30:                                               ; preds = %27
  %31 = getelementptr inbounds nuw i8, ptr %6, i64 392
  %32 = load i32, ptr %31, align 8
  %33 = call i32 @job_requeue(i32 noundef 0, i32 noundef %32, ptr noundef null, i1 noundef zeroext true, i32 noundef 0) #8
  %34 = icmp eq i32 %33, 0
  br i1 %34, label %35, label %39

35:                                               ; preds = %30
  %36 = call i32 @get_log_level() #8
  %37 = icmp sgt i32 %36, 2
  br i1 %37, label %38, label %.critedge

38:                                               ; preds = %35
  call void (i32, ptr, ...) @log_var(i32 noundef 3, ptr noundef nonnull @.str.62, ptr noundef nonnull %6) #8
  br label %.critedge

39:                                               ; preds = %30
  %40 = call ptr @slurm_strerror(i32 noundef %33) #8
  %41 = call i32 (ptr, ...) @error(ptr noundef nonnull @.str.63, ptr noundef nonnull %6, ptr noundef %40) #8
  br label %.critedge39

42:                                               ; preds = %10
  %43 = call i32 (ptr, ...) @error(ptr noundef nonnull @.str.64, i32 noundef 0, ptr noundef nonnull %6) #8
  br label %.critedge, !llvm.loop !14

.critedge39:                                      ; preds = %21, %24, %27, %14, %39, %10, %12
  %44 = call i32 @job_signal(ptr noundef nonnull %6, i16 noundef zeroext 9, i16 noundef zeroext 0, i32 noundef 0, i1 noundef zeroext true) #8
  %45 = icmp eq i32 %44, 0
  %46 = call i32 @get_log_level() #8
  %47 = icmp sgt i32 %46, 2
  br i1 %45, label %48, label %50

48:                                               ; preds = %.critedge39
  br i1 %47, label %49, label %.critedge

49:                                               ; preds = %48
  call void (i32, ptr, ...) @log_var(i32 noundef 3, ptr noundef nonnull @.str.65, ptr noundef nonnull @__func__._preempt_job_dequeue, ptr noundef nonnull %6) #8
  br label %.critedge

50:                                               ; preds = %.critedge39
  br i1 %47, label %51, label %.critedge

51:                                               ; preds = %50
  %52 = call ptr @slurm_strerror(i32 noundef %44) #8
  call void (i32, ptr, ...) @log_var(i32 noundef 3, ptr noundef nonnull @.str.66, ptr noundef nonnull @__func__._preempt_job_dequeue, ptr noundef nonnull %6, ptr noundef %52) #8
  br label %.critedge

.critedge:                                        ; preds = %12, %12, %50, %51, %48, %49, %35, %38, %17, %20, %42, %8
  %53 = load ptr, ptr @preempt_job_list, align 8
  %54 = call ptr @list_pop(ptr noundef %53) #8
  store ptr %54, ptr %1, align 8
  %.not = icmp eq ptr %54, null
  br i1 %.not, label %._crit_edge, label %.lr.ph

._crit_edge:                                      ; preds = %.critedge, %0
  call void @llvm.lifetime.end.p0(i64 8, ptr nonnull %1) #8
  ret void
}